; Function Attrs: nounwind uwtable
define internal fastcc void @emitter_json_array_kv_begin(ptr nocapture noundef %emitter, ptr noundef %json_key) unnamed_addr #0 {
entry:
  tail call fastcc void @emitter_json_key(ptr noundef %emitter, ptr noundef %json_key)
  %emitter.val.i = load i32, ptr %emitter, align 8
  %spec.select.i.i = icmp ult i32 %emitter.val.i, 2
  br i1 %spec.select.i.i, label %if.then.i, label %emitter_json_array_begin.exit

if.then.i:                                        ; preds = %entry
  %emitted_key.i.i = getelementptr inbounds i8, ptr %emitter, i64 29
  %0 = load i8, ptr %emitted_key.i.i, align 1
  %1 = and i8 %0, 1
  %tobool.not.i.i = icmp eq i8 %1, 0
  br i1 %tobool.not.i.i, label %if.end.i.i, label %if.then.i.i

if.then.i.i:                                      ; preds = %if.then.i
  store i8 0, ptr %emitted_key.i.i, align 1
  br label %emitter_json_key_prefix.exit.i

if.end.i.i:                                       ; preds = %if.then.i
  %item_at_depth.i.i = getelementptr inbounds i8, ptr %emitter, i64 28
  %2 = load i8, ptr %item_at_depth.i.i, align 4
  %3 = and i8 %2, 1
  %tobool2.not.i.i = icmp eq i8 %3, 0
  br i1 %tobool2.not.i.i, label %if.end4.i.i, label %if.then3.i.i

if.then3.i.i:                                     ; preds = %if.end.i.i
  tail call void (ptr, ptr, ...) @emitter_printf(ptr noundef nonnull %emitter, ptr noundef nonnull @.str.32)
  %.pre.i = load i32, ptr %emitter, align 8
  br label %if.end4.i.i

if.end4.i.i:                                      ; preds = %if.then3.i.i, %if.end.i.i
  %4 = phi i32 [ %.pre.i, %if.then3.i.i ], [ %emitter.val.i, %if.end.i.i ]
  %cmp.not.i.i = icmp eq i32 %4, 1
  br i1 %cmp.not.i.i, label %emitter_json_key_prefix.exit.i, label %if.then5.i.i

if.then5.i.i:                                     ; preds = %if.end4.i.i
  tail call void (ptr, ptr, ...) @emitter_printf(ptr noundef nonnull %emitter, ptr noundef nonnull @.str.33)
  %nesting_depth.i.i.i = getelementptr inbounds i8, ptr %emitter, i64 24
  %5 = load i32, ptr %nesting_depth.i.i.i, align 8
  %6 = load i32, ptr %emitter, align 8
  %cmp.i.i.i = icmp ne i32 %6, 0
  %indent_str.0.i.i.i = select i1 %cmp.i.i.i, ptr @.str.31, ptr @.str.34
  %cmp15.i.i.i = icmp sgt i32 %5, 0
  br i1 %cmp15.i.i.i, label %for.body.preheader.i.i.i, label %emitter_json_key_prefix.exit.i

for.body.preheader.i.i.i:                         ; preds = %if.then5.i.i
  %mul.i.i.i = zext i1 %cmp.i.i.i to i32
  %amount.0.i.i.i = shl nuw nsw i32 %5, %mul.i.i.i
  %smax.i.i.i = tail call i32 @llvm.smax.i32(i32 %amount.0.i.i.i, i32 1)
  br label %for.body.i.i.i

for.body.i.i.i:                                   ; preds = %for.body.i.i.i, %for.body.preheader.i.i.i
  %i.06.i.i.i = phi i32 [ %inc.i.i.i, %for.body.i.i.i ], [ 0, %for.body.preheader.i.i.i ]
  tail call void (ptr, ptr, ...) @emitter_printf(ptr noundef nonnull %emitter, ptr noundef nonnull @.str.28, ptr noundef nonnull %indent_str.0.i.i.i)
  %inc.i.i.i = add nuw nsw i32 %i.06.i.i.i, 1
  %exitcond.not.i.i.i = icmp eq i32 %inc.i.i.i, %smax.i.i.i
  br i1 %exitcond.not.i.i.i, label %emitter_json_key_prefix.exit.i, label %for.body.i.i.i, !llvm.loop !7

emitter_json_key_prefix.exit.i:                   ; preds = %for.body.i.i.i, %if.then5.i.i, %if.end4.i.i, %if.then.i.i
  tail call void (ptr, ptr, ...) @emitter_printf(ptr noundef nonnull %emitter, ptr noundef nonnull @.str.228)
  %nesting_depth.i.i = getelementptr inbounds i8, ptr %emitter, i64 24
  %7 = load i32, ptr %nesting_depth.i.i, align 8
  %inc.i.i = add nsw i32 %7, 1
  store i32 %inc.i.i, ptr %nesting_depth.i.i, align 8
  %item_at_depth.i4.i = getelementptr inbounds i8, ptr %emitter, i64 28
  store i8 0, ptr %item_at_depth.i4.i, align 4
  br label %emitter_json_array_begin.exit

emitter_json_array_begin.exit:                    ; preds = %entry, %emitter_json_key_prefix.exit.i
  ret void
}